; ModuleID = '20/1106.c'
source_filename = "20/1106.c"
target datalayout = "e-m:e-p270:32:32-p271:32:32-p272:64:64-i64:64-f80:128-n8:16:32:64-S128"
target triple = "x86_64-pc-linux-gnu"

@.str = private unnamed_addr constant [5 x i8] c"%s%s\00", align 1

; Function Attrs: noinline nounwind uwtable
define dso_local i32 @main() #0 {
  %1 = alloca i32, align 4
  %2 = alloca [20 x i8], align 16
  %3 = alloca [4 x i8], align 1
  %4 = alloca [15 x i8], align 1
  %5 = alloca i32, align 4
  %6 = alloca i32, align 4
  %7 = alloca i32, align 4
  %8 = alloca i32, align 4
  %9 = alloca i32, align 4
  store i32 0, i32* %1, align 4
  %10 = bitcast [15 x i8]* %4 to i8*
  call void @llvm.memset.p0i8.i64(i8* align 1 %10, i8 0, i64 15, i1 false)
  br label %11

11:                                               ; preds = %107, %0
  %12 = getelementptr inbounds [20 x i8], [20 x i8]* %2, i64 0, i64 0
  %13 = getelementptr inbounds [4 x i8], [4 x i8]* %3, i64 0, i64 0
  %14 = call i32 (i8*, ...) @__isoc99_scanf(i8* getelementptr inbounds ([5 x i8], [5 x i8]* @.str, i64 0, i64 0), i8* %12, i8* %13)
  %15 = icmp ne i32 %14, -1
  br i1 %15, label %16, label %117

16:                                               ; preds = %11
  %17 = getelementptr inbounds [20 x i8], [20 x i8]* %2, i64 0, i64 0
  %18 = call i64 @strlen(i8* %17) #5
  %19 = trunc i64 %18 to i32
  store i32 %19, i32* %9, align 4
  store i32 0, i32* %6, align 4
  br label %20

20:                                               ; preds = %51, %16
  %21 = load i32, i32* %6, align 4
  %22 = load i32, i32* %9, align 4
  %23 = icmp slt i32 %21, %22
  br i1 %23, label %24, label %54

24:                                               ; preds = %20
  store i32 0, i32* %8, align 4
  store i32 0, i32* %7, align 4
  br label %25

25:                                               ; preds = %43, %24
  %26 = load i32, i32* %7, align 4
  %27 = load i32, i32* %9, align 4
  %28 = icmp slt i32 %26, %27
  br i1 %28, label %29, label %46

29:                                               ; preds = %25
  %30 = load i32, i32* %7, align 4
  %31 = sext i32 %30 to i64
  %32 = getelementptr inbounds [20 x i8], [20 x i8]* %2, i64 0, i64 %31
  %33 = load i8, i8* %32, align 1
  %34 = sext i8 %33 to i32
  %35 = load i32, i32* %6, align 4
  %36 = sext i32 %35 to i64
  %37 = getelementptr inbounds [20 x i8], [20 x i8]* %2, i64 0, i64 %36
  %38 = load i8, i8* %37, align 1
  %39 = sext i8 %38 to i32
  %40 = icmp sgt i32 %34, %39
  br i1 %40, label %41, label %42

41:                                               ; preds = %29
  store i32 1, i32* %8, align 4
  br label %42

42:                                               ; preds = %41, %29
  br label %43

43:                                               ; preds = %42
  %44 = load i32, i32* %7, align 4
  %45 = add nsw i32 %44, 1
  store i32 %45, i32* %7, align 4
  br label %25

46:                                               ; preds = %25
  %47 = load i32, i32* %8, align 4
  %48 = icmp eq i32 %47, 0
  br i1 %48, label %49, label %50

49:                                               ; preds = %46
  br label %54

50:                                               ; preds = %46
  br label %51

51:                                               ; preds = %50
  %52 = load i32, i32* %6, align 4
  %53 = add nsw i32 %52, 1
  store i32 %53, i32* %6, align 4
  br label %20

54:                                               ; preds = %49, %20
  store i32 0, i32* %7, align 4
  br label %55

55:                                               ; preds = %67, %54
  %56 = load i32, i32* %7, align 4
  %57 = load i32, i32* %6, align 4
  %58 = icmp sle i32 %56, %57
  br i1 %58, label %59, label %70

59:                                               ; preds = %55
  %60 = load i32, i32* %7, align 4
  %61 = sext i32 %60 to i64
  %62 = getelementptr inbounds [20 x i8], [20 x i8]* %2, i64 0, i64 %61
  %63 = load i8, i8* %62, align 1
  %64 = load i32, i32* %7, align 4
  %65 = sext i32 %64 to i64
  %66 = getelementptr inbounds [15 x i8], [15 x i8]* %4, i64 0, i64 %65
  store i8 %63, i8* %66, align 1
  br label %67

67:                                               ; preds = %59
  %68 = load i32, i32* %7, align 4
  %69 = add nsw i32 %68, 1
  store i32 %69, i32* %7, align 4
  br label %55

70:                                               ; preds = %55
  store i32 0, i32* %7, align 4
  br label %71

71:                                               ; preds = %85, %70
  %72 = load i32, i32* %7, align 4
  %73 = icmp slt i32 %72, 3
  br i1 %73, label %74, label %88

74:                                               ; preds = %71
  %75 = load i32, i32* %7, align 4
  %76 = sext i32 %75 to i64
  %77 = getelementptr inbounds [4 x i8], [4 x i8]* %3, i64 0, i64 %76
  %78 = load i8, i8* %77, align 1
  %79 = load i32, i32* %6, align 4
  %80 = load i32, i32* %7, align 4
  %81 = add nsw i32 %79, %80
  %82 = add nsw i32 %81, 1
  %83 = sext i32 %82 to i64
  %84 = getelementptr inbounds [15 x i8], [15 x i8]* %4, i64 0, i64 %83
  store i8 %78, i8* %84, align 1
  br label %85

85:                                               ; preds = %74
  %86 = load i32, i32* %7, align 4
  %87 = add nsw i32 %86, 1
  store i32 %87, i32* %7, align 4
  br label %71

88:                                               ; preds = %71
  %89 = load i32, i32* %6, align 4
  %90 = add nsw i32 %89, 1
  store i32 %90, i32* %7, align 4
  br label %91

91:                                               ; preds = %104, %88
  %92 = load i32, i32* %7, align 4
  %93 = load i32, i32* %9, align 4
  %94 = icmp slt i32 %92, %93
  br i1 %94, label %95, label %107

95:                                               ; preds = %91
  %96 = load i32, i32* %7, align 4
  %97 = sext i32 %96 to i64
  %98 = getelementptr inbounds [20 x i8], [20 x i8]* %2, i64 0, i64 %97
  %99 = load i8, i8* %98, align 1
  %100 = load i32, i32* %7, align 4
  %101 = add nsw i32 %100, 3
  %102 = sext i32 %101 to i64
  %103 = getelementptr inbounds [15 x i8], [15 x i8]* %4, i64 0, i64 %102
  store i8 %99, i8* %103, align 1
  br label %104

104:                                              ; preds = %95
  %105 = load i32, i32* %7, align 4
  %106 = add nsw i32 %105, 1
  store i32 %106, i32* %7, align 4
  br label %91

107:                                              ; preds = %91
  %108 = load i32, i32* %9, align 4
  %109 = add nsw i32 %108, 3
  %110 = sext i32 %109 to i64
  %111 = getelementptr inbounds [15 x i8], [15 x i8]* %4, i64 0, i64 %110
  store i8 0, i8* %111, align 1
  %112 = getelementptr inbounds [20 x i8], [20 x i8]* %2, i64 0, i64 0
  %113 = getelementptr inbounds [15 x i8], [15 x i8]* %4, i64 0, i64 0
  %114 = call i8* @strcpy(i8* %112, i8* %113) #6
  %115 = getelementptr inbounds [20 x i8], [20 x i8]* %2, i64 0, i64 0
  %116 = call i32 @puts(i8* %115)
  br label %11

117:                                              ; preds = %11
  ret i32 0
}

; Function Attrs: argmemonly nounwind willreturn
declare void @llvm.memset.p0i8.i64(i8* nocapture writeonly, i8, i64, i1 immarg) #1

declare dso_local i32 @__isoc99_scanf(i8*, ...) #2

; Function Attrs: nounwind readonly
declare dso_local i64 @strlen(i8*) #3

; Function Attrs: nounwind
declare dso_local i8* @strcpy(i8*, i8*) #4

declare dso_local i32 @puts(i8*) #2


!llvm.module.flags = !{!0}
!llvm.ident = !{!1}

!0 = !{i32 1, !"wchar_size", i32 4}
!1 = !{!"clang version 10.0.0-4ubuntu1 "}
